; ModuleID = '44/1273.c'
source_filename = "44/1273.c"
target datalayout = "e-m:e-p270:32:32-p271:32:32-p272:64:64-i64:64-f80:128-n8:16:32:64-S128"
target triple = "x86_64-pc-linux-gnu"

@.str = private unnamed_addr constant [3 x i8] c"%d\00", align 1
@.str.1 = private unnamed_addr constant [2 x i8] c"\0A\00", align 1

; Function Attrs: noinline nounwind uwtable
define dso_local i32 @main() #0 {
  %1 = alloca i32, align 4
  %2 = alloca i32, align 4
  %3 = alloca [6 x i32], align 16
  store i32 0, i32* %1, align 4
  store i32 0, i32* %2, align 4
  br label %4

4:                                                ; preds = %25, %0
  %5 = load i32, i32* %2, align 4
  %6 = icmp slt i32 %5, 6
  br i1 %6, label %7, label %28

7:                                                ; preds = %4
  %8 = load i32, i32* %2, align 4
  %9 = sext i32 %8 to i64
  %10 = getelementptr inbounds [6 x i32], [6 x i32]* %3, i64 0, i64 %9
  %11 = call i32 (i8*, ...) @__isoc99_scanf(i8* getelementptr inbounds ([3 x i8], [3 x i8]* @.str, i64 0, i64 0), i32* %10)
  %12 = load i32, i32* %2, align 4
  %13 = icmp slt i32 %12, 5
  br i1 %13, label %14, label %16

14:                                               ; preds = %7
  %15 = call i32 @getchar()
  br label %16

16:                                               ; preds = %14, %7
  %17 = load i32, i32* %2, align 4
  %18 = sext i32 %17 to i64
  %19 = getelementptr inbounds [6 x i32], [6 x i32]* %3, i64 0, i64 %18
  %20 = load i32, i32* %19, align 4
  %21 = call i32 @reverse(i32 %20)
  %22 = load i32, i32* %2, align 4
  %23 = sext i32 %22 to i64
  %24 = getelementptr inbounds [6 x i32], [6 x i32]* %3, i64 0, i64 %23
  store i32 %21, i32* %24, align 4
  br label %25

25:                                               ; preds = %16
  %26 = load i32, i32* %2, align 4
  %27 = add nsw i32 %26, 1
  store i32 %27, i32* %2, align 4
  br label %4

28:                                               ; preds = %4
  store i32 0, i32* %2, align 4
  br label %29

29:                                               ; preds = %43, %28
  %30 = load i32, i32* %2, align 4
  %31 = icmp slt i32 %30, 6
  br i1 %31, label %32, label %46

32:                                               ; preds = %29
  %33 = load i32, i32* %2, align 4
  %34 = sext i32 %33 to i64
  %35 = getelementptr inbounds [6 x i32], [6 x i32]* %3, i64 0, i64 %34
  %36 = load i32, i32* %35, align 4
  %37 = call i32 (i8*, ...) @printf(i8* getelementptr inbounds ([3 x i8], [3 x i8]* @.str, i64 0, i64 0), i32 %36)
  %38 = load i32, i32* %2, align 4
  %39 = icmp slt i32 %38, 5
  br i1 %39, label %40, label %42

40:                                               ; preds = %32
  %41 = call i32 (i8*, ...) @printf(i8* getelementptr inbounds ([2 x i8], [2 x i8]* @.str.1, i64 0, i64 0))
  br label %42

42:                                               ; preds = %40, %32
  br label %43

43:                                               ; preds = %42
  %44 = load i32, i32* %2, align 4
  %45 = add nsw i32 %44, 1
  store i32 %45, i32* %2, align 4
  br label %29

46:                                               ; preds = %29
  ret i32 0
}

declare dso_local i32 @__isoc99_scanf(i8*, ...) #1

declare dso_local i32 @getchar() #1

; Function Attrs: noinline nounwind uwtable
define dso_local i32 @reverse(i32 %0) #0 {
  %2 = alloca i32, align 4
  %3 = alloca i32, align 4
  %4 = alloca i32, align 4
  %5 = alloca i32, align 4
  %6 = alloca i32, align 4
  store i32 %0, i32* %2, align 4
  store i32 0, i32* %5, align 4
  %7 = load i32, i32* %2, align 4
  %8 = call i32 @abs(i32 %7) #4
  %9 = sitofp i32 %8 to double
  %10 = call double @log10(double %9) #5
  %11 = fptosi double %10 to i32
  store i32 %11, i32* %3, align 4
  store i32 0, i32* %4, align 4
  br label %12

12:                                               ; preds = %40, %1
  %13 = load i32, i32* %4, align 4
  %14 = load i32, i32* %3, align 4
  %15 = icmp sle i32 %13, %14
  br i1 %15, label %16, label %43

16:                                               ; preds = %12
  %17 = load i32, i32* %3, align 4
  %18 = load i32, i32* %4, align 4
  %19 = sub nsw i32 %17, %18
  %20 = sitofp i32 %19 to double
  %21 = call double @pow(double 1.000000e+01, double %20) #5
  %22 = fptosi double %21 to i32
  store i32 %22, i32* %6, align 4
  %23 = load i32, i32* %4, align 4
  %24 = sitofp i32 %23 to double
  %25 = call double @pow(double 1.000000e+01, double %24) #5
  %26 = fptosi double %25 to i32
  %27 = load i32, i32* %2, align 4
  %28 = load i32, i32* %6, align 4
  %29 = sdiv i32 %27, %28
  %30 = mul nsw i32 %26, %29
  %31 = load i32, i32* %5, align 4
  %32 = add nsw i32 %31, %30
  store i32 %32, i32* %5, align 4
  %33 = load i32, i32* %2, align 4
  %34 = load i32, i32* %2, align 4
  %35 = load i32, i32* %6, align 4
  %36 = sdiv i32 %34, %35
  %37 = load i32, i32* %6, align 4
  %38 = mul nsw i32 %36, %37
  %39 = sub nsw i32 %33, %38
  store i32 %39, i32* %2, align 4
  br label %40

40:                                               ; preds = %16
  %41 = load i32, i32* %4, align 4
  %42 = add nsw i32 %41, 1
  store i32 %42, i32* %4, align 4
  br label %12

43:                                               ; preds = %12
  %44 = load i32, i32* %2, align 4
  %45 = icmp slt i32 %44, 0
  br i1 %45, label %46, label %49

46:                                               ; preds = %43
  %47 = load i32, i32* %5, align 4
  %48 = sub nsw i32 0, %47
  store i32 %48, i32* %5, align 4
  br label %49

49:                                               ; preds = %46, %43
  %50 = load i32, i32* %5, align 4
  ret i32 %50
}

declare dso_local i32 @printf(i8*, ...) #1

; Function Attrs: nounwind
declare dso_local double @log10(double) #2

; Function Attrs: nounwind readnone
declare dso_local i32 @abs(i32) #3

; Function Attrs: nounwind
declare dso_local double @pow(double, double) #2


!llvm.module.flags = !{!0}
!llvm.ident = !{!1}

!0 = !{i32 1, !"wchar_size", i32 4}
!1 = !{!"clang version 10.0.0-4ubuntu1 "}
